; Function Attrs: mustprogress uwtable
define dso_local void @_ZN4absl18container_internal20SetHashtablezEnabledEb(i1 noundef zeroext %0) local_unnamed_addr #0 {
  %2 = zext i1 %0 to i8
  store atomic i8 %2, ptr @_ZN4absl18container_internal12_GLOBAL__N_120g_hashtablez_enabledE.0 release, align 1
  %3 = load atomic i64, ptr @_ZN4absl18container_internal12_GLOBAL__N_128g_hashtablez_config_listenerE.0 acquire, align 8
  %.not.i = icmp eq i64 %3, 0
  br i1 %.not.i, label %_ZN4absl18container_internal12_GLOBAL__N_131TriggerHashtablezConfigListenerEv.exit, label %4

4:                                                ; preds = %1
  %.0.i.i.i = inttoptr i64 %3 to ptr
  tail call void %.0.i.i.i()
  br label %_ZN4absl18container_internal12_GLOBAL__N_131TriggerHashtablezConfigListenerEv.exit

_ZN4absl18container_internal12_GLOBAL__N_131TriggerHashtablezConfigListenerEv.exit: ; preds = %1, %4
  ret void
}